target datalayout = "e-m:e-p270:32:32-p271:32:32-p272:64:64-i64:64-i128:128-f80:128-n8:16:32:64-S128"
target triple = "x86_64-pc-linux-gnu"

%struct.cube = type { i8, i8, i16, i16, i16, ptr, ptr, ptr, ptr }

; Function Attrs: inlinehint nounwind uwtable
define internal i32 @VarBit(i32 noundef %0) #3 {
  %2 = alloca i32, align 4
  store i32 %0, ptr %2, align 4, !tbaa !3
  %3 = load i32, ptr %2, align 4, !tbaa !3
  %4 = and i32 %3, 31
  ret i32 %4
}

; Function Attrs: inlinehint nounwind uwtable
define internal i32 @VarWord(i32 noundef %0) #3 {
  %2 = alloca i32, align 4
  store i32 %0, ptr %2, align 4, !tbaa !3
  %3 = load i32, ptr %2, align 4, !tbaa !3
  %4 = ashr i32 %3, 5
  ret i32 %4
}

; Function Attrs: nounwind uwtable
define void @InsertVars(ptr noundef %0, ptr noundef %1, i32 noundef %2, ptr noundef %3) #0 {
  %5 = alloca ptr, align 8
  %6 = alloca ptr, align 8
  %7 = alloca i32, align 4
  %8 = alloca ptr, align 8
  %9 = alloca i32, align 4
  %10 = alloca i32, align 4
  %11 = alloca i32, align 4
  %12 = alloca i32, align 4
  store ptr %0, ptr %5, align 8, !tbaa !11
  store ptr %1, ptr %6, align 8, !tbaa !28
  store i32 %2, ptr %7, align 4, !tbaa !3
  store ptr %3, ptr %8, align 8, !tbaa !28
  call void @llvm.lifetime.start.p0(i64 4, ptr %9) #4
  call void @llvm.lifetime.start.p0(i64 4, ptr %10) #4
  call void @llvm.lifetime.start.p0(i64 4, ptr %11) #4
  call void @llvm.lifetime.start.p0(i64 4, ptr %12) #4
  store i32 0, ptr %12, align 4, !tbaa !3
  br label %13

13:                                               ; preds = %53, %4
  %14 = load i32, ptr %12, align 4, !tbaa !3
  %15 = load i32, ptr %7, align 4, !tbaa !3
  %16 = icmp slt i32 %14, %15
  br i1 %16, label %17, label %56

17:                                               ; preds = %13
  %18 = load ptr, ptr %6, align 8, !tbaa !28
  %19 = load i32, ptr %12, align 4, !tbaa !3
  %20 = sext i32 %19 to i64
  %21 = getelementptr inbounds i32, ptr %18, i64 %20
  %22 = load i32, ptr %21, align 4, !tbaa !3
  %23 = shl i32 %22, 1
  store i32 %23, ptr %9, align 4, !tbaa !3
  %24 = load i32, ptr %9, align 4, !tbaa !3
  %25 = call i32 @VarWord(i32 noundef %24)
  store i32 %25, ptr %10, align 4, !tbaa !3
  %26 = load i32, ptr %9, align 4, !tbaa !3
  %27 = call i32 @VarBit(i32 noundef %26)
  store i32 %27, ptr %11, align 4, !tbaa !3
  %28 = load ptr, ptr %5, align 8, !tbaa !11
  %29 = getelementptr inbounds nuw %struct.cube, ptr %28, i32 0, i32 5
  %30 = load ptr, ptr %29, align 8, !tbaa !14
  %31 = load i32, ptr %10, align 4, !tbaa !3
  %32 = sext i32 %31 to i64
  %33 = getelementptr inbounds i32, ptr %30, i64 %32
  %34 = load i32, ptr %33, align 4, !tbaa !3
  %35 = load i32, ptr %11, align 4, !tbaa !3
  %36 = shl i32 3, %35
  %37 = xor i32 %36, -1
  %38 = and i32 %34, %37
  %39 = load ptr, ptr %8, align 8, !tbaa !28
  %40 = load i32, ptr %12, align 4, !tbaa !3
  %41 = sext i32 %40 to i64
  %42 = getelementptr inbounds i32, ptr %39, i64 %41
  %43 = load i32, ptr %42, align 4, !tbaa !3
  %44 = load i32, ptr %11, align 4, !tbaa !3
  %45 = shl i32 %43, %44
  %46 = or i32 %38, %45
  %47 = load ptr, ptr %5, align 8, !tbaa !11
  %48 = getelementptr inbounds nuw %struct.cube, ptr %47, i32 0, i32 5
  %49 = load ptr, ptr %48, align 8, !tbaa !14
  %50 = load i32, ptr %10, align 4, !tbaa !3
  %51 = sext i32 %50 to i64
  %52 = getelementptr inbounds i32, ptr %49, i64 %51
  store i32 %46, ptr %52, align 4, !tbaa !3
  br label %53

53:                                               ; preds = %17
  %54 = load i32, ptr %12, align 4, !tbaa !3
  %55 = add nsw i32 %54, 1
  store i32 %55, ptr %12, align 4, !tbaa !3
  br label %13, !llvm.loop !33

56:                                               ; preds = %13
  call void @llvm.lifetime.end.p0(i64 4, ptr %12) #4
  call void @llvm.lifetime.end.p0(i64 4, ptr %11) #4
  call void @llvm.lifetime.end.p0(i64 4, ptr %10) #4
  call void @llvm.lifetime.end.p0(i64 4, ptr %9) #4
  ret void
}