; Function Attrs: nofree norecurse nosync nounwind memory(readwrite, inaccessiblemem: none) uwtable
define void @InsertVars(ptr noundef readonly captures(none) %0, ptr noundef readonly captures(none) %1, i32 noundef %2, ptr noundef readonly captures(none) %3) local_unnamed_addr #5 {
  %5 = icmp sgt i32 %2, 0
  br i1 %5, label %.lr.ph, label %._crit_edge

.lr.ph:                                           ; preds = %4
  %6 = getelementptr inbounds nuw i8, ptr %0, i64 8
  %7 = load ptr, ptr %6, align 8, !tbaa !11
  %wide.trip.count = zext nneg i32 %2 to i64
  br label %8

8:                                                ; preds = %.lr.ph, %8
  %indvars.iv = phi i64 [ 0, %.lr.ph ], [ %indvars.iv.next, %8 ]
  %9 = getelementptr inbounds nuw i32, ptr %1, i64 %indvars.iv
  %10 = load i32, ptr %9, align 4, !tbaa !8
  %11 = shl i32 %10, 1
  %12 = ashr i32 %11, 5
  %13 = and i32 %11, 30
  %14 = sext i32 %12 to i64
  %15 = getelementptr inbounds i32, ptr %7, i64 %14
  %16 = load i32, ptr %15, align 4, !tbaa !8
  %17 = shl nuw i32 3, %13
  %18 = xor i32 %17, -1
  %19 = and i32 %16, %18
  %20 = getelementptr inbounds nuw i32, ptr %3, i64 %indvars.iv
  %21 = load i32, ptr %20, align 4, !tbaa !8
  %22 = shl i32 %21, %13
  %23 = or i32 %19, %22
  store i32 %23, ptr %15, align 4, !tbaa !8
  %indvars.iv.next = add nuw nsw i64 %indvars.iv, 1
  %exitcond.not = icmp eq i64 %indvars.iv.next, %wide.trip.count
  br i1 %exitcond.not, label %._crit_edge, label %8, !llvm.loop !31

._crit_edge:                                      ; preds = %8, %4
  ret void
}